(dp1
S'libraries'
p2
(lp3
S'wpcap'
p4
aS'iphlpapi'
p5
asS'library_dirs'
p6
(lp7
S'..\\WpdPack\\lib'
p8
asS'extra_compile_args'
p9
(lp10
S'-DWIN32'
p11
aS'-DWPCAP'
p12
asS'include_dirs'
p13
(lp14
S'..\\WpdPack\\include'
p15
as.